target datalayout = "e-m:e-p270:32:32-p271:32:32-p272:64:64-i64:64-i128:128-f80:128-n8:16:32:64-S128"
target triple = "x86_64-pc-linux-gnu"

%"class.std::ios_base::Init" = type { i8 }
%"struct.std::_Vector_base" = type { %"struct.std::_Vector_base<mold::Counter *, std::allocator<mold::Counter *>>::_Vector_impl" }
%"struct.std::_Vector_base<mold::Counter *, std::allocator<mold::Counter *>>::_Vector_impl" = type { %"struct.std::_Vector_base<mold::Counter *, std::allocator<mold::Counter *>>::_Vector_impl_data" }
%"struct.std::_Vector_base<mold::Counter *, std::allocator<mold::Counter *>>::_Vector_impl_data" = type { ptr, ptr, ptr }
%"class.mold::HyperLogLog" = type { [2048 x %"struct.mold::Atomic"] }
%"struct.mold::Atomic" = type { %"struct.std::atomic" }
%"struct.std::atomic" = type { %"struct.std::__atomic_base" }
%"struct.std::__atomic_base" = type { i8 }

$_ZN4mold7Counter9instancesE = comdat any

$_ZNSt6vectorIPN4mold7CounterESaIS2_EED2Ev = comdat any

$_ZNK4mold6AtomicIhEcvhEv = comdat any

$_ZSt8_DestroyIPPN4mold7CounterES2_EvT_S4_RSaIT0_E = comdat any

$_ZNSt12_Vector_baseIPN4mold7CounterESaIS2_EE19_M_get_Tp_allocatorEv = comdat any

$_ZNSt12_Vector_baseIPN4mold7CounterESaIS2_EED2Ev = comdat any

$_ZSt8_DestroyIPPN4mold7CounterEEvT_S4_ = comdat any

$_ZNSt12_Destroy_auxILb1EE9__destroyIPPN4mold7CounterEEEvT_S6_ = comdat any

$_ZNSt12_Vector_baseIPN4mold7CounterESaIS2_EE13_M_deallocateEPS2_m = comdat any

$_ZNSaIPN4mold7CounterEED2Ev = comdat any

$_ZNSt16allocator_traitsISaIPN4mold7CounterEEE10deallocateERS3_PS2_m = comdat any

$_ZNSaIPN4mold7CounterEE10deallocateEPS1_m = comdat any

$_ZNSt15__new_allocatorIPN4mold7CounterEE10deallocateEPS2_m = comdat any

$_ZNK4mold6AtomicIhE4loadESt12memory_order = comdat any

$_ZNKSt13__atomic_baseIhE4loadESt12memory_order = comdat any

$_ZStanSt12memory_orderSt23__memory_order_modifier = comdat any

@_ZStL8__ioinit = internal global %"class.std::ios_base::Init" zeroinitializer, align 1
@__dso_handle = external hidden global i8
@_ZN4mold7Counter9instancesE = linkonce_odr dso_local global { { ptr, ptr, ptr } } zeroinitializer, comdat, align 8
@_ZGVN4mold7Counter9instancesE = linkonce_odr dso_local global i64 0, comdat($_ZN4mold7Counter9instancesE), align 8
@llvm.global_ctors = appending global [2 x { i32, ptr, ptr }] [{ i32, ptr, ptr } { i32 65535, ptr @__cxx_global_var_init.1, ptr @_ZN4mold7Counter9instancesE }, { i32, ptr, ptr } { i32 65535, ptr @_GLOBAL__sub_I_hyperloglog.cc, ptr null }]
@llvm.used = appending global [1 x ptr] [ptr @_ZN4mold7Counter9instancesE], section "llvm.metadata"

; Function Attrs: nounwind
define internal void @__cxx_global_var_init() #0 section ".text.startup" {
  call void @_ZNSt8ios_base4InitC1Ev(ptr noundef nonnull align 1 dereferenceable(1) @_ZStL8__ioinit)
  %1 = call i32 @__cxa_atexit(ptr @_ZNSt8ios_base4InitD1Ev, ptr @_ZStL8__ioinit, ptr @__dso_handle) #3
  ret void
}

declare void @_ZNSt8ios_base4InitC1Ev(ptr noundef nonnull align 1 dereferenceable(1)) unnamed_addr #1

; Function Attrs: nounwind
declare void @_ZNSt8ios_base4InitD1Ev(ptr noundef nonnull align 1 dereferenceable(1)) unnamed_addr #2

; Function Attrs: nounwind
declare i32 @__cxa_atexit(ptr, ptr, ptr) #3

; Function Attrs: nounwind
define internal void @__cxx_global_var_init.1() #0 section ".text.startup" comdat($_ZN4mold7Counter9instancesE) {
  %1 = load atomic i8, ptr @_ZGVN4mold7Counter9instancesE acquire, align 8
  %2 = icmp eq i8 %1, 0
  br i1 %2, label %3, label %8

3:                                                ; preds = %0
  %4 = call i32 @__cxa_guard_acquire(ptr @_ZGVN4mold7Counter9instancesE) #3
  %5 = icmp ne i32 %4, 0
  br i1 %5, label %6, label %8

6:                                                ; preds = %3
  %7 = call i32 @__cxa_atexit(ptr @_ZNSt6vectorIPN4mold7CounterESaIS2_EED2Ev, ptr @_ZN4mold7Counter9instancesE, ptr @__dso_handle) #3
  call void @__cxa_guard_release(ptr @_ZGVN4mold7Counter9instancesE) #3
  br label %8

8:                                                ; preds = %6, %3, %0
  ret void
}

; Function Attrs: nounwind
declare i32 @__cxa_guard_acquire(ptr) #3

; Function Attrs: mustprogress nounwind
define linkonce_odr dso_local void @_ZNSt6vectorIPN4mold7CounterESaIS2_EED2Ev(ptr noundef nonnull align 8 dereferenceable(24) %0) unnamed_addr #4 comdat align 2 {
  %2 = alloca ptr, align 8
  store ptr %0, ptr %2, align 8, !tbaa !3
  %3 = load ptr, ptr %2, align 8
  %4 = getelementptr inbounds nuw %"struct.std::_Vector_base", ptr %3, i32 0, i32 0
  %5 = getelementptr inbounds nuw %"struct.std::_Vector_base<mold::Counter *, std::allocator<mold::Counter *>>::_Vector_impl_data", ptr %4, i32 0, i32 0
  %6 = load ptr, ptr %5, align 8, !tbaa !8
  %7 = getelementptr inbounds nuw %"struct.std::_Vector_base", ptr %3, i32 0, i32 0
  %8 = getelementptr inbounds nuw %"struct.std::_Vector_base<mold::Counter *, std::allocator<mold::Counter *>>::_Vector_impl_data", ptr %7, i32 0, i32 1
  %9 = load ptr, ptr %8, align 8, !tbaa !12
  %10 = call noundef nonnull align 1 dereferenceable(1) ptr @_ZNSt12_Vector_baseIPN4mold7CounterESaIS2_EE19_M_get_Tp_allocatorEv(ptr noundef nonnull align 8 dereferenceable(24) %3) #3
  call void @_ZSt8_DestroyIPPN4mold7CounterES2_EvT_S4_RSaIT0_E(ptr noundef %6, ptr noundef %9, ptr noundef nonnull align 1 dereferenceable(1) %10)
  call void @_ZNSt12_Vector_baseIPN4mold7CounterESaIS2_EED2Ev(ptr noundef nonnull align 8 dereferenceable(24) %3) #3
  ret void
}

; Function Attrs: nounwind
declare void @__cxa_guard_release(ptr) #3

; Function Attrs: mustprogress nounwind
define dso_local noundef i64 @_ZNK4mold11HyperLogLog15get_cardinalityEv(ptr noundef nonnull align 1 dereferenceable(2048) %0) #4 align 2 {
  %2 = alloca ptr, align 8
  %3 = alloca double, align 8
  %4 = alloca ptr, align 8
  %5 = alloca ptr, align 8
  %6 = alloca ptr, align 8
  %7 = alloca i64, align 8
  store ptr %0, ptr %2, align 8, !tbaa !13
  %8 = load ptr, ptr %2, align 8
  call void @llvm.lifetime.start.p0(i64 8, ptr %3) #3
  store double 0.000000e+00, ptr %3, align 8, !tbaa !15
  call void @llvm.lifetime.start.p0(i64 8, ptr %4) #3
  %9 = getelementptr inbounds nuw %"class.mold::HyperLogLog", ptr %8, i32 0, i32 0
  store ptr %9, ptr %4, align 8, !tbaa !17
  call void @llvm.lifetime.start.p0(i64 8, ptr %5) #3
  %10 = load ptr, ptr %4, align 8, !tbaa !17
  %11 = getelementptr inbounds [2048 x %"struct.mold::Atomic"], ptr %10, i64 0, i64 0
  store ptr %11, ptr %5, align 8, !tbaa !17
  call void @llvm.lifetime.start.p0(i64 8, ptr %6) #3
  %12 = load ptr, ptr %4, align 8, !tbaa !17
  %13 = getelementptr inbounds [2048 x %"struct.mold::Atomic"], ptr %12, i64 0, i64 0
  %14 = getelementptr inbounds %"struct.mold::Atomic", ptr %13, i64 2048
  store ptr %14, ptr %6, align 8, !tbaa !17
  br label %15

15:                                               ; preds = %30, %1
  %16 = load ptr, ptr %5, align 8, !tbaa !17
  %17 = load ptr, ptr %6, align 8, !tbaa !17
  %18 = icmp ne ptr %16, %17
  br i1 %18, label %20, label %19

19:                                               ; preds = %15
  call void @llvm.lifetime.end.p0(i64 8, ptr %6) #3
  call void @llvm.lifetime.end.p0(i64 8, ptr %5) #3
  call void @llvm.lifetime.end.p0(i64 8, ptr %4) #3
  br label %33

20:                                               ; preds = %15
  call void @llvm.lifetime.start.p0(i64 8, ptr %7) #3
  %21 = load ptr, ptr %5, align 8, !tbaa !17
  %22 = call noundef zeroext i8 @_ZNK4mold6AtomicIhEcvhEv(ptr noundef nonnull align 1 dereferenceable(1) %21)
  %23 = zext i8 %22 to i64
  store i64 %23, ptr %7, align 8, !tbaa !19
  %24 = load i64, ptr %7, align 8, !tbaa !19
  %25 = sub nsw i64 0, %24
  %26 = trunc i64 %25 to i32
  %27 = call double @ldexp(double noundef 1.000000e+00, i32 noundef %26) #3, !tbaa !21
  %28 = load double, ptr %3, align 8, !tbaa !15
  %29 = fadd double %28, %27
  store double %29, ptr %3, align 8, !tbaa !15
  call void @llvm.lifetime.end.p0(i64 8, ptr %7) #3
  br label %30

30:                                               ; preds = %20
  %31 = load ptr, ptr %5, align 8, !tbaa !17
  %32 = getelementptr inbounds nuw %"struct.mold::Atomic", ptr %31, i32 1
  store ptr %32, ptr %5, align 8, !tbaa !17
  br label %15

33:                                               ; preds = %19
  %34 = load double, ptr %3, align 8, !tbaa !15
  %35 = fdiv double 0x4149689CA18BD662, %34
  %36 = fptosi double %35 to i64
  call void @llvm.lifetime.end.p0(i64 8, ptr %3) #3
  ret i64 %36
}

; Function Attrs: nocallback nofree nosync nounwind willreturn memory(argmem: readwrite)
declare void @llvm.lifetime.start.p0(i64 immarg, ptr captures(none)) #5

; Function Attrs: mustprogress nounwind
define linkonce_odr dso_local noundef zeroext i8 @_ZNK4mold6AtomicIhEcvhEv(ptr noundef nonnull align 1 dereferenceable(1) %0) #4 comdat align 2 {
  %2 = alloca ptr, align 8
  store ptr %0, ptr %2, align 8, !tbaa !17
  %3 = load ptr, ptr %2, align 8
  %4 = call noundef zeroext i8 @_ZNK4mold6AtomicIhE4loadESt12memory_order(ptr noundef nonnull align 1 dereferenceable(1) %3, i32 noundef 0)
  ret i8 %4
}

; Function Attrs: nounwind
declare double @ldexp(double noundef, i32 noundef) #2

; Function Attrs: nocallback nofree nosync nounwind willreturn memory(argmem: readwrite)
declare void @llvm.lifetime.end.p0(i64 immarg, ptr captures(none)) #5

; Function Attrs: inlinehint mustprogress nounwind
define linkonce_odr dso_local void @_ZSt8_DestroyIPPN4mold7CounterES2_EvT_S4_RSaIT0_E(ptr noundef %0, ptr noundef %1, ptr noundef nonnull align 1 dereferenceable(1) %2) #6 comdat {
  %4 = alloca ptr, align 8
  %5 = alloca ptr, align 8
  %6 = alloca ptr, align 8
  store ptr %0, ptr %4, align 8, !tbaa !23
  store ptr %1, ptr %5, align 8, !tbaa !23
  store ptr %2, ptr %6, align 8, !tbaa !24
  %7 = load ptr, ptr %4, align 8, !tbaa !23
  %8 = load ptr, ptr %5, align 8, !tbaa !23
  call void @_ZSt8_DestroyIPPN4mold7CounterEEvT_S4_(ptr noundef %7, ptr noundef %8)
  ret void
}

; Function Attrs: mustprogress nounwind
define linkonce_odr dso_local noundef nonnull align 1 dereferenceable(1) ptr @_ZNSt12_Vector_baseIPN4mold7CounterESaIS2_EE19_M_get_Tp_allocatorEv(ptr noundef nonnull align 8 dereferenceable(24) %0) #4 comdat align 2 {
  %2 = alloca ptr, align 8
  store ptr %0, ptr %2, align 8, !tbaa !26
  %3 = load ptr, ptr %2, align 8
  %4 = getelementptr inbounds nuw %"struct.std::_Vector_base", ptr %3, i32 0, i32 0
  ret ptr %4
}

; Function Attrs: mustprogress nounwind
define linkonce_odr dso_local void @_ZNSt12_Vector_baseIPN4mold7CounterESaIS2_EED2Ev(ptr noundef nonnull align 8 dereferenceable(24) %0) unnamed_addr #4 comdat align 2 {
  %2 = alloca ptr, align 8
  store ptr %0, ptr %2, align 8, !tbaa !26
  %3 = load ptr, ptr %2, align 8
  %4 = getelementptr inbounds nuw %"struct.std::_Vector_base", ptr %3, i32 0, i32 0
  %5 = getelementptr inbounds nuw %"struct.std::_Vector_base<mold::Counter *, std::allocator<mold::Counter *>>::_Vector_impl_data", ptr %4, i32 0, i32 0
  %6 = load ptr, ptr %5, align 8, !tbaa !8
  %7 = getelementptr inbounds nuw %"struct.std::_Vector_base", ptr %3, i32 0, i32 0
  %8 = getelementptr inbounds nuw %"struct.std::_Vector_base<mold::Counter *, std::allocator<mold::Counter *>>::_Vector_impl_data", ptr %7, i32 0, i32 2
  %9 = load ptr, ptr %8, align 8, !tbaa !28
  %10 = getelementptr inbounds nuw %"struct.std::_Vector_base", ptr %3, i32 0, i32 0
  %11 = getelementptr inbounds nuw %"struct.std::_Vector_base<mold::Counter *, std::allocator<mold::Counter *>>::_Vector_impl_data", ptr %10, i32 0, i32 0
  %12 = load ptr, ptr %11, align 8, !tbaa !8
  %13 = ptrtoint ptr %9 to i64
  %14 = ptrtoint ptr %12 to i64
  %15 = sub i64 %13, %14
  %16 = sdiv exact i64 %15, 8
  call void @_ZNSt12_Vector_baseIPN4mold7CounterESaIS2_EE13_M_deallocateEPS2_m(ptr noundef nonnull align 8 dereferenceable(24) %3, ptr noundef %6, i64 noundef %16)
  %17 = getelementptr inbounds nuw %"struct.std::_Vector_base", ptr %3, i32 0, i32 0
  call void @_ZNSaIPN4mold7CounterEED2Ev(ptr noundef nonnull align 8 dereferenceable(24) %17) #3
  ret void
}

; Function Attrs: inlinehint mustprogress nounwind
define linkonce_odr dso_local void @_ZSt8_DestroyIPPN4mold7CounterEEvT_S4_(ptr noundef %0, ptr noundef %1) #6 comdat {
  %3 = alloca ptr, align 8
  %4 = alloca ptr, align 8
  store ptr %0, ptr %3, align 8, !tbaa !23
  store ptr %1, ptr %4, align 8, !tbaa !23
  %5 = load ptr, ptr %3, align 8, !tbaa !23
  %6 = load ptr, ptr %4, align 8, !tbaa !23
  call void @_ZNSt12_Destroy_auxILb1EE9__destroyIPPN4mold7CounterEEEvT_S6_(ptr noundef %5, ptr noundef %6)
  ret void
}

; Function Attrs: mustprogress nounwind
define linkonce_odr dso_local void @_ZNSt12_Destroy_auxILb1EE9__destroyIPPN4mold7CounterEEEvT_S6_(ptr noundef %0, ptr noundef %1) #4 comdat align 2 {
  %3 = alloca ptr, align 8
  %4 = alloca ptr, align 8
  store ptr %0, ptr %3, align 8, !tbaa !23
  store ptr %1, ptr %4, align 8, !tbaa !23
  ret void
}

; Function Attrs: mustprogress nounwind
define linkonce_odr dso_local void @_ZNSt12_Vector_baseIPN4mold7CounterESaIS2_EE13_M_deallocateEPS2_m(ptr noundef nonnull align 8 dereferenceable(24) %0, ptr noundef %1, i64 noundef %2) #4 comdat align 2 {
  %4 = alloca ptr, align 8
  %5 = alloca ptr, align 8
  %6 = alloca i64, align 8
  store ptr %0, ptr %4, align 8, !tbaa !26
  store ptr %1, ptr %5, align 8, !tbaa !23
  store i64 %2, ptr %6, align 8, !tbaa !19
  %7 = load ptr, ptr %4, align 8
  %8 = load ptr, ptr %5, align 8, !tbaa !23
  %9 = icmp ne ptr %8, null
  br i1 %9, label %10, label %14

10:                                               ; preds = %3
  %11 = getelementptr inbounds nuw %"struct.std::_Vector_base", ptr %7, i32 0, i32 0
  %12 = load ptr, ptr %5, align 8, !tbaa !23
  %13 = load i64, ptr %6, align 8, !tbaa !19
  call void @_ZNSt16allocator_traitsISaIPN4mold7CounterEEE10deallocateERS3_PS2_m(ptr noundef nonnull align 1 dereferenceable(1) %11, ptr noundef %12, i64 noundef %13)
  br label %14

14:                                               ; preds = %10, %3
  ret void
}

; Function Attrs: mustprogress nounwind
define linkonce_odr dso_local void @_ZNSaIPN4mold7CounterEED2Ev(ptr noundef nonnull align 1 dereferenceable(1) %0) unnamed_addr #4 comdat align 2 {
  %2 = alloca ptr, align 8
  store ptr %0, ptr %2, align 8, !tbaa !24
  ret void
}

; Function Attrs: mustprogress nounwind
define linkonce_odr dso_local void @_ZNSt16allocator_traitsISaIPN4mold7CounterEEE10deallocateERS3_PS2_m(ptr noundef nonnull align 1 dereferenceable(1) %0, ptr noundef %1, i64 noundef %2) #4 comdat align 2 {
  %4 = alloca ptr, align 8
  %5 = alloca ptr, align 8
  %6 = alloca i64, align 8
  store ptr %0, ptr %4, align 8, !tbaa !24
  store ptr %1, ptr %5, align 8, !tbaa !23
  store i64 %2, ptr %6, align 8, !tbaa !19
  %7 = load ptr, ptr %4, align 8, !tbaa !24
  %8 = load ptr, ptr %5, align 8, !tbaa !23
  %9 = load i64, ptr %6, align 8, !tbaa !19
  call void @_ZNSaIPN4mold7CounterEE10deallocateEPS1_m(ptr noundef nonnull align 1 dereferenceable(1) %7, ptr noundef %8, i64 noundef %9)
  ret void
}

; Function Attrs: alwaysinline mustprogress nounwind
define linkonce_odr dso_local void @_ZNSaIPN4mold7CounterEE10deallocateEPS1_m(ptr noundef nonnull align 1 dereferenceable(1) %0, ptr noundef %1, i64 noundef %2) #7 comdat align 2 {
  %4 = alloca ptr, align 8
  %5 = alloca ptr, align 8
  %6 = alloca i64, align 8
  store ptr %0, ptr %4, align 8, !tbaa !24
  store ptr %1, ptr %5, align 8, !tbaa !23
  store i64 %2, ptr %6, align 8, !tbaa !19
  %7 = load ptr, ptr %4, align 8
  %8 = load ptr, ptr %5, align 8, !tbaa !23
  %9 = load i64, ptr %6, align 8, !tbaa !19
  call void @_ZNSt15__new_allocatorIPN4mold7CounterEE10deallocateEPS2_m(ptr noundef nonnull align 1 dereferenceable(1) %7, ptr noundef %8, i64 noundef %9)
  ret void
}

; Function Attrs: mustprogress nounwind
define linkonce_odr dso_local void @_ZNSt15__new_allocatorIPN4mold7CounterEE10deallocateEPS2_m(ptr noundef nonnull align 1 dereferenceable(1) %0, ptr noundef %1, i64 noundef %2) #4 comdat align 2 {
  %4 = alloca ptr, align 8
  %5 = alloca ptr, align 8
  %6 = alloca i64, align 8
  store ptr %0, ptr %4, align 8, !tbaa !29
  store ptr %1, ptr %5, align 8, !tbaa !23
  store i64 %2, ptr %6, align 8, !tbaa !19
  %7 = load ptr, ptr %5, align 8, !tbaa !23
  %8 = load i64, ptr %6, align 8, !tbaa !19
  %9 = mul i64 %8, 8
  call void @_ZdlPvm(ptr noundef %7, i64 noundef %9) #9
  ret void
}

; Function Attrs: nobuiltin nounwind
declare void @_ZdlPvm(ptr noundef, i64 noundef) #8

; Function Attrs: mustprogress nounwind
define linkonce_odr dso_local noundef zeroext i8 @_ZNK4mold6AtomicIhE4loadESt12memory_order(ptr noundef nonnull align 1 dereferenceable(1) %0, i32 noundef %1) #4 comdat align 2 {
  %3 = alloca ptr, align 8
  %4 = alloca i32, align 4
  store ptr %0, ptr %3, align 8, !tbaa !17
  store i32 %1, ptr %4, align 4, !tbaa !31
  %5 = load ptr, ptr %3, align 8
  %6 = load i32, ptr %4, align 4, !tbaa !31
  %7 = call noundef zeroext i8 @_ZNKSt13__atomic_baseIhE4loadESt12memory_order(ptr noundef nonnull align 1 dereferenceable(1) %5, i32 noundef %6) #3
  ret i8 %7
}

; Function Attrs: alwaysinline mustprogress nounwind
define linkonce_odr dso_local noundef zeroext i8 @_ZNKSt13__atomic_baseIhE4loadESt12memory_order(ptr noundef nonnull align 1 dereferenceable(1) %0, i32 noundef %1) #7 comdat align 2 {
  %3 = alloca ptr, align 8
  %4 = alloca i32, align 4
  %5 = alloca i32, align 4
  %6 = alloca i8, align 1
  store ptr %0, ptr %3, align 8, !tbaa !33
  store i32 %1, ptr %4, align 4, !tbaa !31
  %7 = load ptr, ptr %3, align 8
  call void @llvm.lifetime.start.p0(i64 4, ptr %5) #3
  %8 = load i32, ptr %4, align 4, !tbaa !31
  %9 = call noundef i32 @_ZStanSt12memory_orderSt23__memory_order_modifier(i32 noundef %8, i32 noundef 65535)
  store i32 %9, ptr %5, align 4, !tbaa !31
  br label %10

10:                                               ; preds = %2
  br label %11

11:                                               ; preds = %10
  br label %12

12:                                               ; preds = %11
  br label %13

13:                                               ; preds = %12
  br label %14

14:                                               ; preds = %13
  br label %15

15:                                               ; preds = %14
  %16 = getelementptr inbounds nuw %"struct.std::__atomic_base", ptr %7, i32 0, i32 0
  %17 = load i32, ptr %4, align 4, !tbaa !31
  switch i32 %17, label %18 [
    i32 1, label %20
    i32 2, label %20
    i32 5, label %22
  ]

18:                                               ; preds = %15
  %19 = load atomic i8, ptr %16 monotonic, align 1
  store i8 %19, ptr %6, align 1
  br label %24

20:                                               ; preds = %15, %15
  %21 = load atomic i8, ptr %16 acquire, align 1
  store i8 %21, ptr %6, align 1
  br label %24

22:                                               ; preds = %15
  %23 = load atomic i8, ptr %16 seq_cst, align 1
  store i8 %23, ptr %6, align 1
  br label %24

24:                                               ; preds = %22, %20, %18
  %25 = load i8, ptr %6, align 1, !tbaa !35
  call void @llvm.lifetime.end.p0(i64 4, ptr %5) #3
  ret i8 %25
}

; Function Attrs: mustprogress nounwind
define linkonce_odr dso_local noundef i32 @_ZStanSt12memory_orderSt23__memory_order_modifier(i32 noundef %0, i32 noundef %1) #4 comdat {
  %3 = alloca i32, align 4
  %4 = alloca i32, align 4
  store i32 %0, ptr %3, align 4, !tbaa !31
  store i32 %1, ptr %4, align 4, !tbaa !36
  %5 = load i32, ptr %3, align 4, !tbaa !31
  %6 = load i32, ptr %4, align 4, !tbaa !36
  %7 = and i32 %5, %6
  ret i32 %7
}

; Function Attrs: nounwind
define internal void @_GLOBAL__sub_I_hyperloglog.cc() #0 section ".text.startup" {
  call void @__cxx_global_var_init()
  ret void
}


!llvm.linker.options = !{}
!llvm.module.flags = !{!0, !1, !2}

!0 = !{i32 1, !"wchar_size", i32 4}
!1 = !{i32 8, !"PIC Level", i32 2}
!2 = !{i32 7, !"PIE Level", i32 2}
!3 = !{!4, !4, i64 0}
!4 = !{!"p1 _ZTSSt6vectorIPN4mold7CounterESaIS2_EE", !5, i64 0}
!5 = !{!"any pointer", !6, i64 0}
!6 = !{!"omnipotent char", !7, i64 0}
!7 = !{!"Simple C++ TBAA"}
!8 = !{!9, !10, i64 0}
!9 = !{!"_ZTSNSt12_Vector_baseIPN4mold7CounterESaIS2_EE17_Vector_impl_dataE", !10, i64 0, !10, i64 8, !10, i64 16}
!10 = !{!"p2 _ZTSN4mold7CounterE", !11, i64 0}
!11 = !{!"any p2 pointer", !5, i64 0}
!12 = !{!9, !10, i64 8}
!13 = !{!14, !14, i64 0}
!14 = !{!"p1 _ZTSN4mold11HyperLogLogE", !5, i64 0}
!15 = !{!16, !16, i64 0}
!16 = !{!"double", !6, i64 0}
!17 = !{!18, !18, i64 0}
!18 = !{!"p1 _ZTSN4mold6AtomicIhEE", !5, i64 0}
!19 = !{!20, !20, i64 0}
!20 = !{!"long", !6, i64 0}
!21 = !{!22, !22, i64 0}
!22 = !{!"int", !6, i64 0}
!23 = !{!10, !10, i64 0}
!24 = !{!25, !25, i64 0}
!25 = !{!"p1 _ZTSSaIPN4mold7CounterEE", !5, i64 0}
!26 = !{!27, !27, i64 0}
!27 = !{!"p1 _ZTSSt12_Vector_baseIPN4mold7CounterESaIS2_EE", !5, i64 0}
!28 = !{!9, !10, i64 16}
!29 = !{!30, !30, i64 0}
!30 = !{!"p1 _ZTSSt15__new_allocatorIPN4mold7CounterEE", !5, i64 0}
!31 = !{!32, !32, i64 0}
!32 = !{!"_ZTSSt12memory_order", !6, i64 0}
!33 = !{!34, !34, i64 0}
!34 = !{!"p1 _ZTSSt13__atomic_baseIhE", !5, i64 0}
!35 = !{!6, !6, i64 0}
!36 = !{!37, !37, i64 0}
!37 = !{!"_ZTSSt23__memory_order_modifier", !6, i64 0}
