; ModuleID = 'bench/mold/original/hyperloglog.ll'
source_filename = "bench/mold/original/hyperloglog.ll"
target datalayout = "e-m:e-p270:32:32-p271:32:32-p272:64:64-i64:64-i128:128-f80:128-n8:16:32:64-S128"
target triple = "x86_64-pc-linux-gnu"

%"class.std::ios_base::Init" = type { i8 }

$_ZN4mold7Counter9instancesE = comdat any

$_ZNSt6vectorIPN4mold7CounterESaIS2_EED2Ev = comdat any

@_ZStL8__ioinit = internal global %"class.std::ios_base::Init" zeroinitializer, align 1
@__dso_handle = external hidden global i8
@_ZN4mold7Counter9instancesE = linkonce_odr dso_local global { { ptr, ptr, ptr } } zeroinitializer, comdat, align 8
@_ZGVN4mold7Counter9instancesE = linkonce_odr dso_local global i64 0, comdat($_ZN4mold7Counter9instancesE), align 8
@llvm.global_ctors = appending global [2 x { i32, ptr, ptr }] [{ i32, ptr, ptr } { i32 65535, ptr @__cxx_global_var_init.1, ptr @_ZN4mold7Counter9instancesE }, { i32, ptr, ptr } { i32 65535, ptr @_GLOBAL__sub_I_hyperloglog.cc, ptr null }]
@llvm.used = appending global [1 x ptr] [ptr @_ZN4mold7Counter9instancesE], section "llvm.metadata"

declare void @_ZNSt8ios_base4InitC1Ev(ptr noundef nonnull align 1 dereferenceable(1)) unnamed_addr #0

; Function Attrs: nounwind
declare void @_ZNSt8ios_base4InitD1Ev(ptr noundef nonnull align 1 dereferenceable(1)) unnamed_addr #1

; Function Attrs: nofree nounwind
declare i32 @__cxa_atexit(ptr, ptr, ptr) local_unnamed_addr #2

; Function Attrs: nofree nounwind
define internal void @__cxx_global_var_init.1() #3 section ".text.startup" comdat($_ZN4mold7Counter9instancesE) {
  %1 = load atomic i8, ptr @_ZGVN4mold7Counter9instancesE acquire, align 8
  %2 = icmp eq i8 %1, 0
  br i1 %2, label %3, label %7

3:                                                ; preds = %0
  %4 = tail call i32 @__cxa_guard_acquire(ptr nonnull @_ZGVN4mold7Counter9instancesE) #9
  %.not = icmp eq i32 %4, 0
  br i1 %.not, label %7, label %5

5:                                                ; preds = %3
  %6 = tail call i32 @__cxa_atexit(ptr nonnull @_ZNSt6vectorIPN4mold7CounterESaIS2_EED2Ev, ptr nonnull @_ZN4mold7Counter9instancesE, ptr nonnull @__dso_handle) #9
  tail call void @__cxa_guard_release(ptr nonnull @_ZGVN4mold7Counter9instancesE) #9
  br label %7

7:                                                ; preds = %5, %3, %0
  ret void
}

; Function Attrs: nofree nounwind
declare i32 @__cxa_guard_acquire(ptr) local_unnamed_addr #2

; Function Attrs: mustprogress nounwind
define linkonce_odr dso_local void @_ZNSt6vectorIPN4mold7CounterESaIS2_EED2Ev(ptr noundef nonnull align 8 dereferenceable(24) %0) unnamed_addr #4 comdat align 2 {
  %2 = load ptr, ptr %0, align 8, !tbaa !3
  %.not.i.i = icmp eq ptr %2, null
  br i1 %.not.i.i, label %_ZNSt12_Vector_baseIPN4mold7CounterESaIS2_EED2Ev.exit, label %3

3:                                                ; preds = %1
  %4 = getelementptr inbounds nuw i8, ptr %0, i64 16
  %5 = load ptr, ptr %4, align 8, !tbaa !10
  %6 = ptrtoint ptr %5 to i64
  %7 = ptrtoint ptr %2 to i64
  %8 = sub i64 %6, %7
  tail call void @_ZdlPvm(ptr noundef nonnull %2, i64 noundef %8) #10
  br label %_ZNSt12_Vector_baseIPN4mold7CounterESaIS2_EED2Ev.exit

_ZNSt12_Vector_baseIPN4mold7CounterESaIS2_EED2Ev.exit: ; preds = %1, %3
  ret void
}

; Function Attrs: nofree nounwind
declare void @__cxa_guard_release(ptr) local_unnamed_addr #2

; Function Attrs: mustprogress nofree nounwind
define dso_local noundef i64 @_ZNK4mold11HyperLogLog15get_cardinalityEv(ptr noundef nonnull readonly align 1 captures(none) dereferenceable(2048) %0) local_unnamed_addr #5 align 2 {
  br label %5

2:                                                ; preds = %5
  %3 = fdiv double 0x4149689CA18BD662, %10
  %4 = fptosi double %3 to i64
  ret i64 %4

5:                                                ; preds = %1, %5
  %.011 = phi double [ 0.000000e+00, %1 ], [ %10, %5 ]
  %.09.idx10 = phi i64 [ 0, %1 ], [ %.09.add, %5 ]
  %.09.ptr = getelementptr inbounds nuw i8, ptr %0, i64 %.09.idx10
  %6 = load atomic i8, ptr %.09.ptr monotonic, align 1
  %7 = zext i8 %6 to i32
  %8 = sub nsw i32 0, %7
  %9 = tail call double @ldexp(double noundef 1.000000e+00, i32 noundef %8) #9, !tbaa !11
  %10 = fadd double %.011, %9
  %.09.add = add nuw nsw i64 %.09.idx10, 1
  %.not = icmp eq i64 %.09.add, 2048
  br i1 %.not, label %2, label %5
}

; Function Attrs: mustprogress nofree nounwind willreturn
declare double @ldexp(double noundef, i32 noundef) local_unnamed_addr #6

; Function Attrs: nobuiltin nounwind
declare void @_ZdlPvm(ptr noundef, i64 noundef) local_unnamed_addr #7

; Function Attrs: nounwind
define internal void @_GLOBAL__sub_I_hyperloglog.cc() #8 section ".text.startup" {
  tail call void @_ZNSt8ios_base4InitC1Ev(ptr noundef nonnull align 1 dereferenceable(1) @_ZStL8__ioinit) #9
  %1 = tail call i32 @__cxa_atexit(ptr nonnull @_ZNSt8ios_base4InitD1Ev, ptr nonnull @_ZStL8__ioinit, ptr nonnull @__dso_handle) #9
  ret void
}


!llvm.linker.options = !{}
!llvm.module.flags = !{!0, !1, !2}

!0 = !{i32 1, !"wchar_size", i32 4}
!1 = !{i32 8, !"PIC Level", i32 2}
!2 = !{i32 7, !"PIE Level", i32 2}
!3 = !{!4, !5, i64 0}
!4 = !{!"_ZTSNSt12_Vector_baseIPN4mold7CounterESaIS2_EE17_Vector_impl_dataE", !5, i64 0, !5, i64 8, !5, i64 16}
!5 = !{!"p2 _ZTSN4mold7CounterE", !6, i64 0}
!6 = !{!"any p2 pointer", !7, i64 0}
!7 = !{!"any pointer", !8, i64 0}
!8 = !{!"omnipotent char", !9, i64 0}
!9 = !{!"Simple C++ TBAA"}
!10 = !{!4, !5, i64 16}
!11 = !{!12, !12, i64 0}
!12 = !{!"int", !8, i64 0}
